target datalayout = "e-m:e-p270:32:32-p271:32:32-p272:64:64-i64:64-i128:128-f80:128-n8:16:32:64-S128"
target triple = "x86_64-pc-linux-gnu"

%"struct.cv::legacy::tracking::TrackerBoosting::Params" = type { i32, float, float, i32, i32 }
%"class.std::__shared_count" = type { ptr }
%"class.cv::legacy::tracking::TrackerBoostingImpl" = type <{ %"class.cv::legacy::tracking::TrackerBoosting", %"struct.cv::legacy::tracking::TrackerBoosting::Params", [4 x i8] }>
%"class.cv::legacy::tracking::TrackerBoosting" = type { %"class.cv::legacy::tracking::Tracker" }
%"class.cv::legacy::tracking::Tracker" = type { %"class.cv::Algorithm", i8, %"struct.cv::Ptr.8", %"struct.cv::Ptr.12", %"struct.cv::Ptr.16" }
%"class.cv::Algorithm" = type { ptr }
%"struct.cv::Ptr.8" = type { %"class.std::shared_ptr.9" }
%"class.std::shared_ptr.9" = type { %"class.std::__shared_ptr.10" }
%"class.std::__shared_ptr.10" = type { ptr, %"class.std::__shared_count" }
%"struct.cv::Ptr.12" = type { %"class.std::shared_ptr.13" }
%"class.std::shared_ptr.13" = type { %"class.std::__shared_ptr.14" }
%"class.std::__shared_ptr.14" = type { ptr, %"class.std::__shared_count" }
%"struct.cv::Ptr.16" = type { %"class.std::shared_ptr.17" }
%"class.std::shared_ptr.17" = type { %"class.std::__shared_ptr.18" }
%"class.std::__shared_ptr.18" = type { ptr, %"class.std::__shared_count" }

; Function Attrs: inlinehint mustprogress uwtable
define linkonce_odr hidden void @_ZN2cv6legacy8tracking15TrackerBoostingC2Ev(ptr noundef nonnull align 8 dereferenceable(64) %0, ptr noundef %1) unnamed_addr #7 comdat align 2 {
  %3 = alloca ptr, align 8
  %4 = alloca ptr, align 8
  store ptr %0, ptr %3, align 8, !tbaa !67
  store ptr %1, ptr %4, align 8, !tbaa !65
  %5 = load ptr, ptr %3, align 8
  %6 = load ptr, ptr %4, align 8
  %7 = getelementptr inbounds ptr, ptr %6, i64 1
  call void @_ZN2cv6legacy8tracking7TrackerC2Ev(ptr noundef nonnull align 8 dereferenceable(64) %5, ptr noundef %7)
  %8 = load ptr, ptr %6, align 8
  store ptr %8, ptr %5, align 8, !tbaa !22
  %9 = getelementptr inbounds ptr, ptr %6, i64 3
  %10 = load ptr, ptr %9, align 8
  %11 = load ptr, ptr %5, align 8, !tbaa !22
  %12 = getelementptr i8, ptr %11, i64 -80
  %13 = load i64, ptr %12, align 8
  %14 = getelementptr inbounds i8, ptr %5, i64 %13
  store ptr %10, ptr %14, align 8, !tbaa !22
  ret void
}

; Function Attrs: mustprogress uwtable
define hidden void @_ZN2cv6legacy8tracking19TrackerBoostingImplC1ERKNS1_15TrackerBoosting6ParamsE(ptr noundef nonnull align 8 dereferenceable(84) %0, ptr noundef nonnull align 4 dereferenceable(20) %1) unnamed_addr #5 align 2 personality ptr @__gxx_personality_v0 {
  %3 = alloca ptr, align 8
  %4 = alloca ptr, align 8
  %5 = alloca ptr, align 8
  %6 = alloca i32, align 4
  store ptr %0, ptr %3, align 8, !tbaa !41
  store ptr %1, ptr %4, align 8, !tbaa !3
  %7 = load ptr, ptr %3, align 8
  call void @_ZN2cv9AlgorithmC2Ev(ptr noundef nonnull align 8 dereferenceable(8) %7)
  invoke void @_ZN2cv6legacy8tracking15TrackerBoostingC2Ev(ptr noundef nonnull align 8 dereferenceable(64) %7, ptr noundef getelementptr inbounds ([6 x ptr], ptr @_ZTTN2cv6legacy8tracking19TrackerBoostingImplE, i64 0, i64 1))
          to label %8 unwind label %12

8:                                                ; preds = %2
  store ptr getelementptr inbounds inrange(-80, 80) ({ [20 x ptr] }, ptr @_ZTVN2cv6legacy8tracking19TrackerBoostingImplE, i32 0, i32 0, i32 10), ptr %7, align 8, !tbaa !22
  store ptr getelementptr inbounds inrange(-80, 80) ({ [20 x ptr] }, ptr @_ZTVN2cv6legacy8tracking19TrackerBoostingImplE, i32 0, i32 0, i32 10), ptr %7, align 8, !tbaa !22
  %9 = getelementptr inbounds nuw %"class.cv::legacy::tracking::TrackerBoostingImpl", ptr %7, i32 0, i32 1
  %10 = load ptr, ptr %4, align 8, !tbaa !3
  call void @llvm.memcpy.p0.p0.i64(ptr align 8 %9, ptr align 4 %10, i64 20, i1 false), !tbaa.struct !43
  %11 = getelementptr inbounds nuw %"class.cv::legacy::tracking::Tracker", ptr %7, i32 0, i32 1
  store i8 0, ptr %11, align 8, !tbaa !44
  ret void

12:                                               ; preds = %2
  %13 = landingpad { ptr, i32 }
          cleanup
  %14 = extractvalue { ptr, i32 } %13, 0
  store ptr %14, ptr %5, align 8
  %15 = extractvalue { ptr, i32 } %13, 1
  store i32 %15, ptr %6, align 4
  call void @_ZN2cv9AlgorithmD2Ev(ptr noundef nonnull align 8 dereferenceable(8) %7) #3
  br label %16

16:                                               ; preds = %12
  %17 = load ptr, ptr %5, align 8
  %18 = load i32, ptr %6, align 4
  %19 = insertvalue { ptr, i32 } poison, ptr %17, 0
  %20 = insertvalue { ptr, i32 } %19, i32 %18, 1
  resume { ptr, i32 } %20
}