; Function Attrs: mustprogress uwtable
define hidden void @_ZN2cv6legacy8tracking19TrackerBoostingImplC1ERKNS1_15TrackerBoosting6ParamsE(ptr noundef nonnull align 8 dereferenceable(84) %0, ptr noundef nonnull readonly align 4 captures(none) dereferenceable(20) %1) unnamed_addr #4 align 2 personality ptr @__gxx_personality_v0 {
  tail call void @_ZN2cv9AlgorithmC2Ev(ptr noundef nonnull align 8 dereferenceable(8) %0)
  invoke void @_ZN2cv6legacy8tracking7TrackerC2Ev(ptr noundef nonnull align 8 dereferenceable(64) %0, ptr noundef nonnull getelementptr inbounds nuw (i8, ptr @_ZTTN2cv6legacy8tracking19TrackerBoostingImplE, i64 16))
          to label %3 unwind label %6

3:                                                ; preds = %2
  store ptr getelementptr inbounds nuw inrange(-80, 80) (i8, ptr @_ZTVN2cv6legacy8tracking19TrackerBoostingImplE, i64 80), ptr %0, align 8, !tbaa !22
  %4 = getelementptr inbounds nuw i8, ptr %0, i64 64
  tail call void @llvm.memcpy.p0.p0.i64(ptr noundef nonnull align 8 dereferenceable(20) %4, ptr noundef nonnull align 4 dereferenceable(20) %1, i64 20, i1 false), !tbaa.struct !35
  %5 = getelementptr inbounds nuw i8, ptr %0, i64 8
  store i8 0, ptr %5, align 8, !tbaa !36
  ret void

6:                                                ; preds = %2
  %7 = landingpad { ptr, i32 }
          cleanup
  tail call void @_ZN2cv9AlgorithmD2Ev(ptr noundef nonnull align 8 dereferenceable(8) %0) #23
  resume { ptr, i32 } %7
}